target datalayout = "e-m:e-p270:32:32-p271:32:32-p272:64:64-i64:64-i128:128-f80:128-n8:16:32:64-S128"
target triple = "x86_64-pc-linux-gnu"

%"class.draco::SequentialAttributeDecodersController" = type { %"class.draco::AttributesDecoder", %"class.std::vector.2", %"class.std::vector.7", %"class.std::unique_ptr" }
%"class.draco::AttributesDecoder" = type { %"class.draco::AttributesDecoderInterface", %"class.std::vector", %"class.std::vector", ptr, ptr }
%"class.draco::AttributesDecoderInterface" = type { ptr }
%"class.std::vector" = type { %"struct.std::_Vector_base" }
%"struct.std::_Vector_base" = type { %"struct.std::_Vector_base<int, std::allocator<int>>::_Vector_impl" }
%"struct.std::_Vector_base<int, std::allocator<int>>::_Vector_impl" = type { %"struct.std::_Vector_base<int, std::allocator<int>>::_Vector_impl_data" }
%"struct.std::_Vector_base<int, std::allocator<int>>::_Vector_impl_data" = type { ptr, ptr, ptr }
%"class.std::vector.2" = type { %"struct.std::_Vector_base.3" }
%"struct.std::_Vector_base.3" = type { %"struct.std::_Vector_base<std::unique_ptr<draco::SequentialAttributeDecoder>, std::allocator<std::unique_ptr<draco::SequentialAttributeDecoder>>>::_Vector_impl" }
%"struct.std::_Vector_base<std::unique_ptr<draco::SequentialAttributeDecoder>, std::allocator<std::unique_ptr<draco::SequentialAttributeDecoder>>>::_Vector_impl" = type { %"struct.std::_Vector_base<std::unique_ptr<draco::SequentialAttributeDecoder>, std::allocator<std::unique_ptr<draco::SequentialAttributeDecoder>>>::_Vector_impl_data" }
%"struct.std::_Vector_base<std::unique_ptr<draco::SequentialAttributeDecoder>, std::allocator<std::unique_ptr<draco::SequentialAttributeDecoder>>>::_Vector_impl_data" = type { ptr, ptr, ptr }
%"class.std::vector.7" = type { %"struct.std::_Vector_base.8" }
%"struct.std::_Vector_base.8" = type { %"struct.std::_Vector_base<draco::IndexType<unsigned int, draco::PointIndex_tag_type_>, std::allocator<draco::IndexType<unsigned int, draco::PointIndex_tag_type_>>>::_Vector_impl" }
%"struct.std::_Vector_base<draco::IndexType<unsigned int, draco::PointIndex_tag_type_>, std::allocator<draco::IndexType<unsigned int, draco::PointIndex_tag_type_>>>::_Vector_impl" = type { %"struct.std::_Vector_base<draco::IndexType<unsigned int, draco::PointIndex_tag_type_>, std::allocator<draco::IndexType<unsigned int, draco::PointIndex_tag_type_>>>::_Vector_impl_data" }
%"struct.std::_Vector_base<draco::IndexType<unsigned int, draco::PointIndex_tag_type_>, std::allocator<draco::IndexType<unsigned int, draco::PointIndex_tag_type_>>>::_Vector_impl_data" = type { ptr, ptr, ptr }
%"class.std::unique_ptr" = type { %"struct.std::__uniq_ptr_data" }
%"struct.std::__uniq_ptr_data" = type { %"class.std::__uniq_ptr_impl" }
%"class.std::__uniq_ptr_impl" = type { %"class.std::tuple" }
%"class.std::tuple" = type { %"struct.std::_Tuple_impl" }
%"struct.std::_Tuple_impl" = type { %"struct.std::_Head_base.1" }
%"struct.std::_Head_base.1" = type { ptr }
%"class.std::unique_ptr.12" = type { %"struct.std::__uniq_ptr_data.13" }
%"struct.std::__uniq_ptr_data.13" = type { %"class.std::__uniq_ptr_impl.14" }
%"class.std::__uniq_ptr_impl.14" = type { %"class.std::tuple.15" }
%"class.std::tuple.15" = type { %"struct.std::_Tuple_impl.16" }
%"struct.std::_Tuple_impl.16" = type { %"struct.std::_Head_base.19" }
%"struct.std::_Head_base.19" = type { ptr }

; Function Attrs: mustprogress nounwind uwtable
define linkonce_odr noundef nonnull align 8 dereferenceable(8) ptr @_ZNSt10_Head_baseILm0EPN5draco26SequentialAttributeDecoderELb0EE7_M_headERKS3_(ptr noundef nonnull align 8 dereferenceable(8) %0) #5 comdat align 2 {
  %2 = alloca ptr, align 8
  store ptr %0, ptr %2, align 8
  %3 = load ptr, ptr %2, align 8
  %4 = getelementptr inbounds %"struct.std::_Head_base.19", ptr %3, i32 0, i32 0
  ret ptr %4
}

; Function Attrs: mustprogress nounwind uwtable
define linkonce_odr noundef nonnull align 8 dereferenceable(8) ptr @_ZNSt11_Tuple_implILm0EJPN5draco26SequentialAttributeDecoderESt14default_deleteIS1_EEE7_M_headERKS5_(ptr noundef nonnull align 8 dereferenceable(8) %0) #5 comdat align 2 {
  %2 = alloca ptr, align 8
  store ptr %0, ptr %2, align 8
  %3 = load ptr, ptr %2, align 8
  %4 = call noundef nonnull align 8 dereferenceable(8) ptr @_ZNSt10_Head_baseILm0EPN5draco26SequentialAttributeDecoderELb0EE7_M_headERKS3_(ptr noundef nonnull align 8 dereferenceable(8) %3) #3
  ret ptr %4
}

; Function Attrs: mustprogress nounwind uwtable
define linkonce_odr noundef nonnull align 8 dereferenceable(8) ptr @_ZSt12__get_helperILm0EPN5draco26SequentialAttributeDecoderEJSt14default_deleteIS1_EEERKT0_RKSt11_Tuple_implIXT_EJS5_DpT1_EE(ptr noundef nonnull align 8 dereferenceable(8) %0) #5 comdat {
  %2 = alloca ptr, align 8
  store ptr %0, ptr %2, align 8
  %3 = load ptr, ptr %2, align 8
  %4 = call noundef nonnull align 8 dereferenceable(8) ptr @_ZNSt11_Tuple_implILm0EJPN5draco26SequentialAttributeDecoderESt14default_deleteIS1_EEE7_M_headERKS5_(ptr noundef nonnull align 8 dereferenceable(8) %3) #3
  ret ptr %4
}

; Function Attrs: mustprogress nounwind uwtable
define linkonce_odr noundef nonnull align 8 dereferenceable(8) ptr @_ZSt3getILm0EJPN5draco26SequentialAttributeDecoderESt14default_deleteIS1_EEERKNSt13tuple_elementIXT_ESt5tupleIJDpT0_EEE4typeERKS9_(ptr noundef nonnull align 8 dereferenceable(8) %0) #5 comdat {
  %2 = alloca ptr, align 8
  store ptr %0, ptr %2, align 8
  %3 = load ptr, ptr %2, align 8
  %4 = call noundef nonnull align 8 dereferenceable(8) ptr @_ZSt12__get_helperILm0EPN5draco26SequentialAttributeDecoderEJSt14default_deleteIS1_EEERKT0_RKSt11_Tuple_implIXT_EJS5_DpT1_EE(ptr noundef nonnull align 8 dereferenceable(8) %3) #3
  ret ptr %4
}

; Function Attrs: mustprogress nounwind uwtable
define linkonce_odr noundef ptr @_ZNKSt15__uniq_ptr_implIN5draco26SequentialAttributeDecoderESt14default_deleteIS1_EE6_M_ptrEv(ptr noundef nonnull align 8 dereferenceable(8) %0) #5 comdat align 2 {
  %2 = alloca ptr, align 8
  store ptr %0, ptr %2, align 8
  %3 = load ptr, ptr %2, align 8
  %4 = getelementptr inbounds %"class.std::__uniq_ptr_impl.14", ptr %3, i32 0, i32 0
  %5 = call noundef nonnull align 8 dereferenceable(8) ptr @_ZSt3getILm0EJPN5draco26SequentialAttributeDecoderESt14default_deleteIS1_EEERKNSt13tuple_elementIXT_ESt5tupleIJDpT0_EEE4typeERKS9_(ptr noundef nonnull align 8 dereferenceable(8) %4) #3
  %6 = load ptr, ptr %5, align 8
  ret ptr %6
}

; Function Attrs: mustprogress nounwind uwtable
define linkonce_odr noundef ptr @_ZNKSt10unique_ptrIN5draco26SequentialAttributeDecoderESt14default_deleteIS1_EE3getEv(ptr noundef nonnull align 8 dereferenceable(8) %0) #5 comdat align 2 {
  %2 = alloca ptr, align 8
  store ptr %0, ptr %2, align 8
  %3 = load ptr, ptr %2, align 8
  %4 = getelementptr inbounds %"class.std::unique_ptr.12", ptr %3, i32 0, i32 0
  %5 = call noundef ptr @_ZNKSt15__uniq_ptr_implIN5draco26SequentialAttributeDecoderESt14default_deleteIS1_EE6_M_ptrEv(ptr noundef nonnull align 8 dereferenceable(8) %4) #3
  ret ptr %5
}

; Function Attrs: mustprogress nounwind uwtable
define linkonce_odr noundef ptr @_ZNKSt10unique_ptrIN5draco26SequentialAttributeDecoderESt14default_deleteIS1_EEptEv(ptr noundef nonnull align 8 dereferenceable(8) %0) #5 comdat align 2 {
  %2 = alloca ptr, align 8
  store ptr %0, ptr %2, align 8
  %3 = load ptr, ptr %2, align 8
  %4 = call noundef ptr @_ZNKSt10unique_ptrIN5draco26SequentialAttributeDecoderESt14default_deleteIS1_EE3getEv(ptr noundef nonnull align 8 dereferenceable(8) %3) #3
  ret ptr %4
}

; Function Attrs: mustprogress nounwind uwtable
define linkonce_odr noundef nonnull align 8 dereferenceable(8) ptr @_ZNSt6vectorISt10unique_ptrIN5draco26SequentialAttributeDecoderESt14default_deleteIS2_EESaIS5_EEixEm(ptr noundef nonnull align 8 dereferenceable(24) %0, i64 noundef %1) #5 comdat align 2 {
  %3 = alloca ptr, align 8
  %4 = alloca i64, align 8
  store ptr %0, ptr %3, align 8
  store i64 %1, ptr %4, align 8
  %5 = load ptr, ptr %3, align 8
  %6 = getelementptr inbounds %"struct.std::_Vector_base.3", ptr %5, i32 0, i32 0
  %7 = getelementptr inbounds %"struct.std::_Vector_base<std::unique_ptr<draco::SequentialAttributeDecoder>, std::allocator<std::unique_ptr<draco::SequentialAttributeDecoder>>>::_Vector_impl_data", ptr %6, i32 0, i32 0
  %8 = load ptr, ptr %7, align 8
  %9 = load i64, ptr %4, align 8
  %10 = getelementptr inbounds %"class.std::unique_ptr.12", ptr %8, i64 %9
  ret ptr %10
}

; Function Attrs: mustprogress uwtable
define noundef zeroext i1 @_ZN5draco37SequentialAttributeDecodersController24DecodePortableAttributesEPNS_13DecoderBufferE(ptr noundef nonnull align 8 dereferenceable(128) %0, ptr noundef %1) unnamed_addr #4 align 2 {
  %3 = alloca i1, align 1
  %4 = alloca ptr, align 8
  %5 = alloca ptr, align 8
  %6 = alloca i32, align 4
  %7 = alloca i32, align 4
  store ptr %0, ptr %4, align 8
  store ptr %1, ptr %5, align 8
  %8 = load ptr, ptr %4, align 8
  %9 = load ptr, ptr %8, align 8
  %10 = getelementptr inbounds ptr, ptr %9, i64 6
  %11 = load ptr, ptr %10, align 8
  %12 = call noundef i32 %11(ptr noundef nonnull align 8 dereferenceable(72) %8)
  store i32 %12, ptr %6, align 4
  store i32 0, ptr %7, align 4
  br label %13

13:                                               ; preds = %31, %2
  %14 = load i32, ptr %7, align 4
  %15 = load i32, ptr %6, align 4
  %16 = icmp slt i32 %14, %15
  br i1 %16, label %17, label %34

17:                                               ; preds = %13
  %18 = getelementptr inbounds %"class.draco::SequentialAttributeDecodersController", ptr %8, i32 0, i32 1
  %19 = load i32, ptr %7, align 4
  %20 = sext i32 %19 to i64
  %21 = call noundef nonnull align 8 dereferenceable(8) ptr @_ZNSt6vectorISt10unique_ptrIN5draco26SequentialAttributeDecoderESt14default_deleteIS2_EESaIS5_EEixEm(ptr noundef nonnull align 8 dereferenceable(24) %18, i64 noundef %20) #3
  %22 = call noundef ptr @_ZNKSt10unique_ptrIN5draco26SequentialAttributeDecoderESt14default_deleteIS1_EEptEv(ptr noundef nonnull align 8 dereferenceable(8) %21) #3
  %23 = getelementptr inbounds %"class.draco::SequentialAttributeDecodersController", ptr %8, i32 0, i32 2
  %24 = load ptr, ptr %5, align 8
  %25 = load ptr, ptr %22, align 8
  %26 = getelementptr inbounds ptr, ptr %25, i64 4
  %27 = load ptr, ptr %26, align 8
  %28 = call noundef zeroext i1 %27(ptr noundef nonnull align 8 dereferenceable(40) %22, ptr noundef nonnull align 8 dereferenceable(24) %23, ptr noundef %24)
  br i1 %28, label %30, label %29

29:                                               ; preds = %17
  store i1 false, ptr %3, align 1
  br label %35

30:                                               ; preds = %17
  br label %31

31:                                               ; preds = %30
  %32 = load i32, ptr %7, align 4
  %33 = add nsw i32 %32, 1
  store i32 %33, ptr %7, align 4
  br label %13, !llvm.loop !7

34:                                               ; preds = %13
  store i1 true, ptr %3, align 1
  br label %35

35:                                               ; preds = %34, %29
  %36 = load i1, ptr %3, align 1
  ret i1 %36
}